; ModuleID = '54/1574.cpp'
source_filename = "54/1574.cpp"
target datalayout = "e-m:e-p270:32:32-p271:32:32-p272:64:64-i64:64-f80:128-n8:16:32:64-S128"
target triple = "x86_64-pc-linux-gnu"

%"class.std::ios_base::Init" = type { i8 }
%"class.std::basic_istream" = type { i32 (...)**, i64, %"class.std::basic_ios" }
%"class.std::basic_ios" = type { %"class.std::ios_base", %"class.std::basic_ostream"*, i8, i8, %"class.std::basic_streambuf"*, %"class.std::ctype"*, %"class.std::num_put"*, %"class.std::num_get"* }
%"class.std::ios_base" = type { i32 (...)**, i64, i64, i32, i32, i32, %"struct.std::ios_base::_Callback_list"*, %"struct.std::ios_base::_Words", [8 x %"struct.std::ios_base::_Words"], i32, %"struct.std::ios_base::_Words"*, %"class.std::locale" }
%"struct.std::ios_base::_Callback_list" = type { %"struct.std::ios_base::_Callback_list"*, void (i32, %"class.std::ios_base"*, i32)*, i32, i32 }
%"struct.std::ios_base::_Words" = type { i8*, i64 }
%"class.std::locale" = type { %"class.std::locale::_Impl"* }
%"class.std::locale::_Impl" = type { i32, %"class.std::locale::facet"**, i64, %"class.std::locale::facet"**, i8** }
%"class.std::locale::facet" = type <{ i32 (...)**, i32, [4 x i8] }>
%"class.std::basic_ostream" = type { i32 (...)**, %"class.std::basic_ios" }
%"class.std::basic_streambuf" = type { i32 (...)**, i8*, i8*, i8*, i8*, i8*, i8*, %"class.std::locale" }
%"class.std::ctype" = type <{ %"class.std::locale::facet.base", [4 x i8], %struct.__locale_struct*, i8, [7 x i8], i32*, i32*, i16*, i8, [256 x i8], [256 x i8], i8, [6 x i8] }>
%"class.std::locale::facet.base" = type <{ i32 (...)**, i32 }>
%struct.__locale_struct = type { [13 x %struct.__locale_data*], i16*, i32*, i32*, [13 x i8*] }
%struct.__locale_data = type opaque
%"class.std::num_put" = type { %"class.std::locale::facet.base", [4 x i8] }
%"class.std::num_get" = type { %"class.std::locale::facet.base", [4 x i8] }

@_ZStL8__ioinit = internal global %"class.std::ios_base::Init" zeroinitializer, align 1
@__dso_handle = external hidden global i8
@_ZSt3cin = external dso_local global %"class.std::basic_istream", align 8
@_ZSt4cout = external dso_local global %"class.std::basic_ostream", align 8
@llvm.global_ctors = appending global [1 x { i32, void ()*, i8* }] [{ i32, void ()*, i8* } { i32 65535, void ()* @_GLOBAL__sub_I_1574.cpp, i8* null }]

; Function Attrs: noinline uwtable
define internal void @__cxx_global_var_init() #0 section ".text.startup" {
  call void @_ZNSt8ios_base4InitC1Ev(%"class.std::ios_base::Init"* @_ZStL8__ioinit)
  %1 = call i32 @__cxa_atexit(void (i8*)* bitcast (void (%"class.std::ios_base::Init"*)* @_ZNSt8ios_base4InitD1Ev to void (i8*)*), i8* getelementptr inbounds (%"class.std::ios_base::Init", %"class.std::ios_base::Init"* @_ZStL8__ioinit, i32 0, i32 0), i8* @__dso_handle) #3
  ret void
}

declare dso_local void @_ZNSt8ios_base4InitC1Ev(%"class.std::ios_base::Init"*) unnamed_addr #1

; Function Attrs: nounwind
declare dso_local void @_ZNSt8ios_base4InitD1Ev(%"class.std::ios_base::Init"*) unnamed_addr #2

; Function Attrs: nounwind
declare dso_local i32 @__cxa_atexit(void (i8*)*, i8*, i8*) #3

; Function Attrs: noinline norecurse uwtable
define dso_local i32 @main() #4 {
  %1 = alloca i32, align 4
  %2 = alloca i32, align 4
  %3 = alloca i32, align 4
  %4 = alloca [10000 x i32], align 16
  %5 = alloca i32, align 4
  store i32 0, i32* %1, align 4
  %6 = call dereferenceable(280) %"class.std::basic_istream"* @_ZNSirsERi(%"class.std::basic_istream"* @_ZSt3cin, i32* dereferenceable(4) %2)
  %7 = call dereferenceable(280) %"class.std::basic_istream"* @_ZNSirsERi(%"class.std::basic_istream"* %6, i32* dereferenceable(4) %3)
  %8 = load i32, i32* %3, align 4
  %9 = getelementptr inbounds [10000 x i32], [10000 x i32]* %4, i64 0, i64 1
  store i32 %8, i32* %9, align 4
  store i32 0, i32* %5, align 4
  br label %10

10:                                               ; preds = %70, %0
  %11 = getelementptr inbounds [10000 x i32], [10000 x i32]* %4, i64 0, i64 1
  %12 = load i32, i32* %11, align 4
  %13 = load i32, i32* %2, align 4
  %14 = add nsw i32 %12, %13
  %15 = getelementptr inbounds [10000 x i32], [10000 x i32]* %4, i64 0, i64 1
  store i32 %14, i32* %15, align 4
  store i32 1, i32* %5, align 4
  br label %16

16:                                               ; preds = %36, %10
  %17 = load i32, i32* %5, align 4
  %18 = load i32, i32* %2, align 4
  %19 = icmp slt i32 %17, %18
  br i1 %19, label %20, label %39

20:                                               ; preds = %16
  %21 = load i32, i32* %5, align 4
  %22 = sext i32 %21 to i64
  %23 = getelementptr inbounds [10000 x i32], [10000 x i32]* %4, i64 0, i64 %22
  %24 = load i32, i32* %23, align 4
  %25 = load i32, i32* %2, align 4
  %26 = mul nsw i32 %24, %25
  %27 = load i32, i32* %2, align 4
  %28 = sub nsw i32 %27, 1
  %29 = sdiv i32 %26, %28
  %30 = load i32, i32* %3, align 4
  %31 = add nsw i32 %29, %30
  %32 = load i32, i32* %5, align 4
  %33 = add nsw i32 %32, 1
  %34 = sext i32 %33 to i64
  %35 = getelementptr inbounds [10000 x i32], [10000 x i32]* %4, i64 0, i64 %34
  store i32 %31, i32* %35, align 4
  br label %36

36:                                               ; preds = %20
  %37 = load i32, i32* %5, align 4
  %38 = add nsw i32 %37, 1
  store i32 %38, i32* %5, align 4
  br label %16

39:                                               ; preds = %16
  store i32 1, i32* %5, align 4
  br label %40

40:                                               ; preds = %66, %39
  %41 = load i32, i32* %5, align 4
  %42 = load i32, i32* %2, align 4
  %43 = icmp slt i32 %41, %42
  br i1 %43, label %44, label %69

44:                                               ; preds = %40
  %45 = load i32, i32* %2, align 4
  %46 = sext i32 %45 to i64
  %47 = getelementptr inbounds [10000 x i32], [10000 x i32]* %4, i64 0, i64 %46
  %48 = load i32, i32* %47, align 4
  %49 = load i32, i32* %3, align 4
  %50 = sub nsw i32 %48, %49
  %51 = load i32, i32* %2, align 4
  %52 = srem i32 %50, %51
  %53 = icmp ne i32 %52, 0
  br i1 %53, label %54, label %55

54:                                               ; preds = %44
  br label %69

55:                                               ; preds = %44
  %56 = load i32, i32* %5, align 4
  %57 = sext i32 %56 to i64
  %58 = getelementptr inbounds [10000 x i32], [10000 x i32]* %4, i64 0, i64 %57
  %59 = load i32, i32* %58, align 4
  %60 = load i32, i32* %2, align 4
  %61 = sub nsw i32 %60, 1
  %62 = srem i32 %59, %61
  %63 = icmp ne i32 %62, 0
  br i1 %63, label %64, label %65

64:                                               ; preds = %55
  br label %69

65:                                               ; preds = %55
  br label %66

66:                                               ; preds = %65
  %67 = load i32, i32* %5, align 4
  %68 = add nsw i32 %67, 1
  store i32 %68, i32* %5, align 4
  br label %40

69:                                               ; preds = %64, %54, %40
  br label %70

70:                                               ; preds = %69
  %71 = load i32, i32* %5, align 4
  %72 = load i32, i32* %2, align 4
  %73 = sub nsw i32 %72, 1
  %74 = icmp slt i32 %71, %73
  br i1 %74, label %10, label %75

75:                                               ; preds = %70
  %76 = load i32, i32* %2, align 4
  %77 = sext i32 %76 to i64
  %78 = getelementptr inbounds [10000 x i32], [10000 x i32]* %4, i64 0, i64 %77
  %79 = load i32, i32* %78, align 4
  %80 = call dereferenceable(272) %"class.std::basic_ostream"* @_ZNSolsEi(%"class.std::basic_ostream"* @_ZSt4cout, i32 %79)
  %81 = call dereferenceable(272) %"class.std::basic_ostream"* @_ZNSolsEPFRSoS_E(%"class.std::basic_ostream"* %80, %"class.std::basic_ostream"* (%"class.std::basic_ostream"*)* @_ZSt4endlIcSt11char_traitsIcEERSt13basic_ostreamIT_T0_ES6_)
  ret i32 0
}

declare dso_local dereferenceable(280) %"class.std::basic_istream"* @_ZNSirsERi(%"class.std::basic_istream"*, i32* dereferenceable(4)) #1

declare dso_local dereferenceable(272) %"class.std::basic_ostream"* @_ZNSolsEi(%"class.std::basic_ostream"*, i32) #1

declare dso_local dereferenceable(272) %"class.std::basic_ostream"* @_ZNSolsEPFRSoS_E(%"class.std::basic_ostream"*, %"class.std::basic_ostream"* (%"class.std::basic_ostream"*)*) #1

declare dso_local dereferenceable(272) %"class.std::basic_ostream"* @_ZSt4endlIcSt11char_traitsIcEERSt13basic_ostreamIT_T0_ES6_(%"class.std::basic_ostream"* dereferenceable(272)) #1

; Function Attrs: noinline uwtable
define internal void @_GLOBAL__sub_I_1574.cpp() #0 section ".text.startup" {
  call void @__cxx_global_var_init()
  ret void
}


!llvm.module.flags = !{!0}
!llvm.ident = !{!1}

!0 = !{i32 1, !"wchar_size", i32 4}
!1 = !{!"clang version 10.0.0-4ubuntu1 "}
